target datalayout = "e-m:e-p270:32:32-p271:32:32-p272:64:64-i64:64-i128:128-f80:128-n8:16:32:64-S128"
target triple = "x86_64-pc-linux-gnu"

%struct.mi_segment_s = type { %struct.mi_memid_s, i8, i8, i64, ptr, i64, %struct.mi_commit_mask_s, %struct.mi_commit_mask_s, ptr, i8, i8, i64, i64, i64, i64, ptr, ptr, i64, i64, i32, i64, i64, [513 x %struct.mi_page_s] }
%struct.mi_memid_s = type { %union.anon, i8, i8, i8, i32 }
%union.anon = type { %struct.mi_memid_os_info }
%struct.mi_memid_os_info = type { ptr, i64 }
%struct.mi_commit_mask_s = type { [8 x i64] }
%struct.mi_page_s = type { i32, i32, i8, i16, i16, %union.mi_page_flags_s, i8, ptr, ptr, i16, i8, i8, i64, ptr, i64, i64, ptr, ptr, [1 x ptr] }
%union.mi_page_flags_s = type { i8 }
%struct.mi_block_s = type { i64 }

; Function Attrs: inlinehint nounwind uwtable
define internal void @mi_block_set_nextx(ptr noundef %0, ptr noundef %1, ptr noundef %2, ptr noundef %3) #0 {
  %5 = alloca ptr, align 8
  %6 = alloca ptr, align 8
  %7 = alloca ptr, align 8
  %8 = alloca ptr, align 8
  store ptr %0, ptr %5, align 8, !tbaa !7
  store ptr %1, ptr %6, align 8, !tbaa !18
  store ptr %2, ptr %7, align 8, !tbaa !18
  store ptr %3, ptr %8, align 8, !tbaa !40
  %9 = load ptr, ptr %7, align 8, !tbaa !18
  %10 = ptrtoint ptr %9 to i64
  %11 = load ptr, ptr %6, align 8, !tbaa !18
  %12 = getelementptr inbounds nuw %struct.mi_block_s, ptr %11, i32 0, i32 0
  store i64 %10, ptr %12, align 8, !tbaa !38
  ret void
}

; Function Attrs: inlinehint nounwind uwtable
define internal zeroext i1 @mi_page_is_in_full(ptr noundef %0) #0 {
  %2 = alloca ptr, align 8
  store ptr %0, ptr %2, align 8, !tbaa !13
  %3 = load ptr, ptr %2, align 8, !tbaa !13
  %4 = getelementptr inbounds nuw %struct.mi_page_s, ptr %3, i32 0, i32 5
  %5 = load i8, ptr %4, align 2
  %6 = and i8 %5, 1
  %7 = icmp ne i8 %6, 0
  ret i1 %7
}

; Function Attrs: inlinehint nounwind uwtable
define internal void @mi_block_set_next(ptr noundef %0, ptr noundef %1, ptr noundef %2) #0 {
  %4 = alloca ptr, align 8
  %5 = alloca ptr, align 8
  %6 = alloca ptr, align 8
  store ptr %0, ptr %4, align 8, !tbaa !13
  store ptr %1, ptr %5, align 8, !tbaa !18
  store ptr %2, ptr %6, align 8, !tbaa !18
  %7 = load ptr, ptr %4, align 8, !tbaa !13
  %8 = load ptr, ptr %5, align 8, !tbaa !18
  %9 = load ptr, ptr %6, align 8, !tbaa !18
  call void @mi_block_set_nextx(ptr noundef %7, ptr noundef %8, ptr noundef %9, ptr noundef null) #14
  ret void
}

; Function Attrs: nounwind uwtable
define internal void @mi_stat_free(ptr noundef %0, ptr noundef %1) #3 {
  %3 = alloca ptr, align 8
  %4 = alloca ptr, align 8
  store ptr %0, ptr %3, align 8, !tbaa !13
  store ptr %1, ptr %4, align 8, !tbaa !18
  ret void
}

; Function Attrs: nounwind uwtable
define internal void @mi_check_padding(ptr noundef %0, ptr noundef %1) #3 {
  %3 = alloca ptr, align 8
  %4 = alloca ptr, align 8
  store ptr %0, ptr %3, align 8, !tbaa !13
  store ptr %1, ptr %4, align 8, !tbaa !18
  ret void
}

; Function Attrs: inlinehint nounwind uwtable
define internal zeroext i1 @mi_check_is_double_free(ptr noundef %0, ptr noundef %1) #0 {
  %3 = alloca ptr, align 8
  %4 = alloca ptr, align 8
  store ptr %0, ptr %3, align 8, !tbaa !13
  store ptr %1, ptr %4, align 8, !tbaa !18
  ret i1 false
}

; Function Attrs: inlinehint nounwind uwtable
define internal ptr @mi_slice_to_page(ptr noundef %0) #0 {
  %2 = alloca ptr, align 8
  store ptr %0, ptr %2, align 8, !tbaa !13
  %3 = load ptr, ptr %2, align 8, !tbaa !13
  ret ptr %3
}

; Function Attrs: inlinehint nounwind uwtable
define internal ptr @mi_slice_first(ptr noundef %0) #0 {
  %2 = alloca ptr, align 8
  %3 = alloca ptr, align 8
  store ptr %0, ptr %2, align 8, !tbaa !13
  call void @llvm.lifetime.start.p0(i64 8, ptr %3) #15
  %4 = load ptr, ptr %2, align 8, !tbaa !13
  %5 = load ptr, ptr %2, align 8, !tbaa !13
  %6 = getelementptr inbounds nuw %struct.mi_page_s, ptr %5, i32 0, i32 1
  %7 = load i32, ptr %6, align 4, !tbaa !53
  %8 = zext i32 %7 to i64
  %9 = sub i64 0, %8
  %10 = getelementptr inbounds i8, ptr %4, i64 %9
  store ptr %10, ptr %3, align 8, !tbaa !13
  %11 = load ptr, ptr %3, align 8, !tbaa !13
  call void @llvm.lifetime.end.p0(i64 8, ptr %3) #15
  ret ptr %11
}

; Function Attrs: inlinehint nounwind uwtable
define internal void @mi_free_block_local(ptr noundef %0, ptr noundef %1, i1 noundef zeroext %2, i1 noundef zeroext %3) #0 {
  %5 = alloca ptr, align 8
  %6 = alloca ptr, align 8
  %7 = alloca i8, align 1
  %8 = alloca i8, align 1
  store ptr %0, ptr %5, align 8, !tbaa !13
  store ptr %1, ptr %6, align 8, !tbaa !18
  %9 = zext i1 %2 to i8
  store i8 %9, ptr %7, align 1, !tbaa !11
  %10 = zext i1 %3 to i8
  store i8 %10, ptr %8, align 1, !tbaa !11
  %11 = load ptr, ptr %5, align 8, !tbaa !13
  %12 = load ptr, ptr %6, align 8, !tbaa !18
  %13 = call zeroext i1 @mi_check_is_double_free(ptr noundef %11, ptr noundef %12) #14
  %14 = xor i1 %13, true
  %15 = xor i1 %14, true
  %16 = zext i1 %15 to i32
  %17 = sext i32 %16 to i64
  %18 = call i64 @llvm.expect.i64(i64 %17, i64 0)
  %19 = icmp ne i64 %18, 0
  br i1 %19, label %20, label %21

20:                                               ; preds = %4
  br label %73

21:                                               ; preds = %4
  %22 = load ptr, ptr %5, align 8, !tbaa !13
  %23 = load ptr, ptr %6, align 8, !tbaa !18
  call void @mi_check_padding(ptr noundef %22, ptr noundef %23) #14
  %24 = load i8, ptr %7, align 1, !tbaa !11, !range !15, !noundef !16
  %25 = trunc i8 %24 to i1
  br i1 %25, label %26, label %29

26:                                               ; preds = %21
  %27 = load ptr, ptr %5, align 8, !tbaa !13
  %28 = load ptr, ptr %6, align 8, !tbaa !18
  call void @mi_stat_free(ptr noundef %27, ptr noundef %28) #14
  br label %29

29:                                               ; preds = %26, %21
  %30 = load i8, ptr %7, align 1, !tbaa !11, !range !15, !noundef !16
  %31 = trunc i8 %30 to i1
  br i1 %31, label %32, label %33

32:                                               ; preds = %29
  br label %33

33:                                               ; preds = %32, %29
  %34 = load ptr, ptr %5, align 8, !tbaa !13
  %35 = load ptr, ptr %6, align 8, !tbaa !18
  %36 = load ptr, ptr %5, align 8, !tbaa !13
  %37 = getelementptr inbounds nuw %struct.mi_page_s, ptr %36, i32 0, i32 8
  %38 = load ptr, ptr %37, align 8, !tbaa !33
  call void @mi_block_set_next(ptr noundef %34, ptr noundef %35, ptr noundef %38) #14
  %39 = load ptr, ptr %6, align 8, !tbaa !18
  %40 = load ptr, ptr %5, align 8, !tbaa !13
  %41 = getelementptr inbounds nuw %struct.mi_page_s, ptr %40, i32 0, i32 8
  store ptr %39, ptr %41, align 8, !tbaa !33
  %42 = load ptr, ptr %5, align 8, !tbaa !13
  %43 = getelementptr inbounds nuw %struct.mi_page_s, ptr %42, i32 0, i32 9
  %44 = load i16, ptr %43, align 8, !tbaa !34
  %45 = add i16 %44, -1
  store i16 %45, ptr %43, align 8, !tbaa !34
  %46 = zext i16 %45 to i32
  %47 = icmp eq i32 %46, 0
  %48 = xor i1 %47, true
  %49 = xor i1 %48, true
  %50 = zext i1 %49 to i32
  %51 = sext i32 %50 to i64
  %52 = call i64 @llvm.expect.i64(i64 %51, i64 0)
  %53 = icmp ne i64 %52, 0
  br i1 %53, label %54, label %56

54:                                               ; preds = %33
  %55 = load ptr, ptr %5, align 8, !tbaa !13
  call void @_mi_page_retire(ptr noundef %55) #14
  br label %73

56:                                               ; preds = %33
  %57 = load i8, ptr %8, align 1, !tbaa !11, !range !15, !noundef !16
  %58 = trunc i8 %57 to i1
  br i1 %58, label %59, label %62

59:                                               ; preds = %56
  %60 = load ptr, ptr %5, align 8, !tbaa !13
  %61 = call zeroext i1 @mi_page_is_in_full(ptr noundef %60) #14
  br label %62

62:                                               ; preds = %59, %56
  %63 = phi i1 [ false, %56 ], [ %61, %59 ]
  %64 = xor i1 %63, true
  %65 = xor i1 %64, true
  %66 = zext i1 %65 to i32
  %67 = sext i32 %66 to i64
  %68 = call i64 @llvm.expect.i64(i64 %67, i64 0)
  %69 = icmp ne i64 %68, 0
  br i1 %69, label %70, label %72

70:                                               ; preds = %62
  %71 = load ptr, ptr %5, align 8, !tbaa !13
  call void @_mi_page_unfull(ptr noundef %71) #14
  br label %72

72:                                               ; preds = %70, %62
  br label %73

73:                                               ; preds = %20, %72, %54
  ret void
}

; Function Attrs: inlinehint nounwind uwtable
define internal ptr @_mi_segment_page_of(ptr noundef %0, ptr noundef %1) #0 {
  %3 = alloca ptr, align 8
  %4 = alloca ptr, align 8
  %5 = alloca i64, align 8
  %6 = alloca i64, align 8
  %7 = alloca ptr, align 8
  %8 = alloca ptr, align 8
  store ptr %0, ptr %3, align 8, !tbaa !9
  store ptr %1, ptr %4, align 8, !tbaa !7
  call void @llvm.lifetime.start.p0(i64 8, ptr %5) #15
  %9 = load ptr, ptr %4, align 8, !tbaa !7
  %10 = load ptr, ptr %3, align 8, !tbaa !9
  %11 = ptrtoint ptr %9 to i64
  %12 = ptrtoint ptr %10 to i64
  %13 = sub i64 %11, %12
  store i64 %13, ptr %5, align 8, !tbaa !3
  call void @llvm.lifetime.start.p0(i64 8, ptr %6) #15
  %14 = load i64, ptr %5, align 8, !tbaa !3
  %15 = lshr i64 %14, 16
  store i64 %15, ptr %6, align 8, !tbaa !3
  call void @llvm.lifetime.start.p0(i64 8, ptr %7) #15
  %16 = load ptr, ptr %3, align 8, !tbaa !9
  %17 = getelementptr inbounds nuw %struct.mi_segment_s, ptr %16, i32 0, i32 22
  %18 = load i64, ptr %6, align 8, !tbaa !3
  %19 = getelementptr inbounds nuw [513 x %struct.mi_page_s], ptr %17, i64 0, i64 %18
  store ptr %19, ptr %7, align 8, !tbaa !13
  call void @llvm.lifetime.start.p0(i64 8, ptr %8) #15
  %20 = load ptr, ptr %7, align 8, !tbaa !13
  %21 = call ptr @mi_slice_first(ptr noundef %20) #14
  store ptr %21, ptr %8, align 8, !tbaa !13
  %22 = load ptr, ptr %8, align 8, !tbaa !13
  %23 = call ptr @mi_slice_to_page(ptr noundef %22) #14
  call void @llvm.lifetime.end.p0(i64 8, ptr %8) #15
  call void @llvm.lifetime.end.p0(i64 8, ptr %7) #15
  call void @llvm.lifetime.end.p0(i64 8, ptr %6) #15
  call void @llvm.lifetime.end.p0(i64 8, ptr %5) #15
  ret ptr %23
}

; Function Attrs: inlinehint nounwind uwtable
define internal ptr @_mi_ptr_segment(ptr noundef %0) #0 {
  %2 = alloca ptr, align 8
  %3 = alloca ptr, align 8
  store ptr %0, ptr %2, align 8, !tbaa !7
  call void @llvm.lifetime.start.p0(i64 8, ptr %3) #15
  %4 = load ptr, ptr %2, align 8, !tbaa !7
  %5 = ptrtoint ptr %4 to i64
  %6 = sub i64 %5, 1
  %7 = and i64 %6, -33554432
  %8 = inttoptr i64 %7 to ptr
  store ptr %8, ptr %3, align 8, !tbaa !9
  %9 = load ptr, ptr %3, align 8, !tbaa !9
  %10 = ptrtoint ptr %9 to i64
  %11 = icmp sle i64 %10, 0
  br i1 %11, label %12, label %13

12:                                               ; preds = %1
  br label %15

13:                                               ; preds = %1
  %14 = load ptr, ptr %3, align 8, !tbaa !9
  br label %15

15:                                               ; preds = %13, %12
  %16 = phi ptr [ null, %12 ], [ %14, %13 ]
  call void @llvm.lifetime.end.p0(i64 8, ptr %3) #15
  ret ptr %16
}

; Function Attrs: nounwind uwtable
define hidden zeroext i1 @_mi_free_delayed_block(ptr noundef %0) #3 {
  %2 = alloca i1, align 1
  %3 = alloca ptr, align 8
  %4 = alloca ptr, align 8
  %5 = alloca ptr, align 8
  %6 = alloca i32, align 4
  store ptr %0, ptr %3, align 8, !tbaa !18
  call void @llvm.lifetime.start.p0(i64 8, ptr %4) #15
  %7 = load ptr, ptr %3, align 8, !tbaa !18
  %8 = call ptr @_mi_ptr_segment(ptr noundef %7) #14
  store ptr %8, ptr %4, align 8, !tbaa !9
  call void @llvm.lifetime.start.p0(i64 8, ptr %5) #15
  %9 = load ptr, ptr %4, align 8, !tbaa !9
  %10 = load ptr, ptr %3, align 8, !tbaa !18
  %11 = call ptr @_mi_segment_page_of(ptr noundef %9, ptr noundef %10) #14
  store ptr %11, ptr %5, align 8, !tbaa !13
  %12 = load ptr, ptr %5, align 8, !tbaa !13
  %13 = call zeroext i1 @_mi_page_try_use_delayed_free(ptr noundef %12, i32 noundef 0, i1 noundef zeroext false) #14
  br i1 %13, label %15, label %14

14:                                               ; preds = %1
  store i1 false, ptr %2, align 1
  store i32 1, ptr %6, align 4
  br label %19

15:                                               ; preds = %1
  %16 = load ptr, ptr %5, align 8, !tbaa !13
  call void @_mi_page_free_collect(ptr noundef %16, i1 noundef zeroext false) #14
  %17 = load ptr, ptr %5, align 8, !tbaa !13
  %18 = load ptr, ptr %3, align 8, !tbaa !18
  call void @mi_free_block_local(ptr noundef %17, ptr noundef %18, i1 noundef zeroext false, i1 noundef zeroext true) #14
  store i1 true, ptr %2, align 1
  store i32 1, ptr %6, align 4
  br label %19

19:                                               ; preds = %15, %14
  call void @llvm.lifetime.end.p0(i64 8, ptr %5) #15
  call void @llvm.lifetime.end.p0(i64 8, ptr %4) #15
  %20 = load i1, ptr %2, align 1
  ret i1 %20
}