; Function Attrs: nounwind uwtable
define hidden noundef zeroext i1 @_mi_free_delayed_block(ptr noundef %0) local_unnamed_addr #3 {
  %2 = ptrtoint ptr %0 to i64
  %3 = add i64 %2, -1
  %4 = and i64 %3, -33554432
  %5 = inttoptr i64 %4 to ptr
  %6 = icmp slt i64 %3, 33554432
  %7 = select i1 %6, ptr null, ptr %5
  %8 = ptrtoint ptr %7 to i64
  %9 = sub i64 %2, %8
  %10 = lshr i64 %9, 16
  %11 = getelementptr inbounds nuw i8, ptr %7, i64 288
  %12 = getelementptr inbounds nuw [513 x %struct.mi_page_s], ptr %11, i64 0, i64 %10
  %13 = getelementptr inbounds nuw i8, ptr %12, i64 4
  %14 = load i32, ptr %13, align 4, !tbaa !23
  %15 = zext i32 %14 to i64
  %16 = sub nsw i64 0, %15
  %17 = getelementptr inbounds i8, ptr %12, i64 %16
  %18 = tail call zeroext i1 @_mi_page_try_use_delayed_free(ptr noundef nonnull %17, i32 noundef 0, i1 noundef zeroext false) #19
  br i1 %18, label %19, label %mi_free_block_local.exit

19:                                               ; preds = %1
  tail call void @_mi_page_free_collect(ptr noundef nonnull %17, i1 noundef zeroext false) #19
  %20 = getelementptr inbounds nuw i8, ptr %17, i64 24
  %21 = load ptr, ptr %20, align 8, !tbaa !25
  %22 = ptrtoint ptr %21 to i64
  store i64 %22, ptr %0, align 8, !tbaa !19
  store ptr %0, ptr %20, align 8, !tbaa !25
  %23 = getelementptr inbounds nuw i8, ptr %17, i64 32
  %24 = load i16, ptr %23, align 8, !tbaa !21
  %25 = add i16 %24, -1
  store i16 %25, ptr %23, align 8, !tbaa !21
  %26 = icmp eq i16 %25, 0
  br i1 %26, label %27, label %28, !prof !18

27:                                               ; preds = %19
  tail call void @_mi_page_retire(ptr noundef nonnull %17) #19
  br label %mi_free_block_local.exit

28:                                               ; preds = %19
  %29 = getelementptr i8, ptr %17, i64 14
  %.val.i = load i8, ptr %29, align 2
  %30 = and i8 %.val.i, 1
  %.not.i = icmp eq i8 %30, 0
  br i1 %.not.i, label %mi_free_block_local.exit, label %31, !prof !8

31:                                               ; preds = %28
  tail call void @_mi_page_unfull(ptr noundef nonnull %17) #19
  br label %mi_free_block_local.exit

mi_free_block_local.exit:                         ; preds = %31, %28, %27, %1
  ret i1 %18
}